target datalayout = "e-m:e-p270:32:32-p271:32:32-p272:64:64-i64:64-i128:128-f80:128-n8:16:32:64-S128"
target triple = "x86_64-pc-linux-gnu"

%class.btSequentialImpulseConstraintSolver = type { %class.btConstraintSolver, %class.btAlignedObjectArray, %class.btAlignedObjectArray.0, %class.btAlignedObjectArray.0, %class.btAlignedObjectArray.0, %class.btAlignedObjectArray.0, %class.btAlignedObjectArray.2, %class.btAlignedObjectArray.2, %class.btAlignedObjectArray.2, %class.btAlignedObjectArray.4, i32, i32, %class.btAlignedObjectArray.2, ptr, ptr, ptr, i32, float, i64, %struct.btSolverAnalyticsData }
%class.btConstraintSolver = type { ptr }
%class.btAlignedObjectArray = type <{ [4 x i8], i32, i32, [4 x i8], ptr, i8, [7 x i8] }>
%class.btAlignedObjectArray.0 = type <{ [4 x i8], i32, i32, [4 x i8], ptr, i8, [7 x i8] }>
%class.btAlignedObjectArray.4 = type <{ [4 x i8], i32, i32, [4 x i8], ptr, i8, [7 x i8] }>
%class.btAlignedObjectArray.2 = type <{ [4 x i8], i32, i32, [4 x i8], ptr, i8, [7 x i8] }>
%struct.btSolverAnalyticsData = type { i32, i32, i32, i32, i32, double }

; Function Attrs: mustprogress nounwind uwtable
define dso_local noundef i64 @_ZN35btSequentialImpulseConstraintSolver7btRand2Ev(ptr noundef nonnull align 8 dereferenceable(408) %0) #1 align 2 {
  %2 = alloca ptr, align 8
  store ptr %0, ptr %2, align 8, !tbaa !12
  %3 = load ptr, ptr %2, align 8
  %4 = getelementptr inbounds nuw %class.btSequentialImpulseConstraintSolver, ptr %3, i32 0, i32 18
  %5 = load i64, ptr %4, align 8, !tbaa !39
  %6 = mul i64 1664525, %5
  %7 = add i64 %6, 1013904223
  %8 = and i64 %7, 4294967295
  %9 = getelementptr inbounds nuw %class.btSequentialImpulseConstraintSolver, ptr %3, i32 0, i32 18
  store i64 %8, ptr %9, align 8, !tbaa !39
  %10 = getelementptr inbounds nuw %class.btSequentialImpulseConstraintSolver, ptr %3, i32 0, i32 18
  %11 = load i64, ptr %10, align 8, !tbaa !39
  ret i64 %11
}

; Function Attrs: mustprogress nounwind uwtable
define dso_local noundef i32 @_ZN35btSequentialImpulseConstraintSolver10btRandInt2Ei(ptr noundef nonnull align 8 dereferenceable(408) %0, i32 noundef %1) #1 align 2 {
  %3 = alloca ptr, align 8
  %4 = alloca i32, align 4
  %5 = alloca i64, align 8
  %6 = alloca i64, align 8
  store ptr %0, ptr %3, align 8, !tbaa !12
  store i32 %1, ptr %4, align 4, !tbaa !9
  %7 = load ptr, ptr %3, align 8
  call void @llvm.lifetime.start.p0(i64 8, ptr %5) #15
  %8 = load i32, ptr %4, align 4, !tbaa !9
  %9 = sext i32 %8 to i64
  store i64 %9, ptr %5, align 8, !tbaa !73
  call void @llvm.lifetime.start.p0(i64 8, ptr %6) #15
  %10 = call noundef i64 @_ZN35btSequentialImpulseConstraintSolver7btRand2Ev(ptr noundef nonnull align 8 dereferenceable(408) %7)
  store i64 %10, ptr %6, align 8, !tbaa !73
  %11 = load i64, ptr %5, align 8, !tbaa !73
  %12 = icmp ule i64 %11, 65536
  br i1 %12, label %13, label %50

13:                                               ; preds = %2
  %14 = load i64, ptr %6, align 8, !tbaa !73
  %15 = lshr i64 %14, 16
  %16 = load i64, ptr %6, align 8, !tbaa !73
  %17 = xor i64 %16, %15
  store i64 %17, ptr %6, align 8, !tbaa !73
  %18 = load i64, ptr %5, align 8, !tbaa !73
  %19 = icmp ule i64 %18, 256
  br i1 %19, label %20, label %49

20:                                               ; preds = %13
  %21 = load i64, ptr %6, align 8, !tbaa !73
  %22 = lshr i64 %21, 8
  %23 = load i64, ptr %6, align 8, !tbaa !73
  %24 = xor i64 %23, %22
  store i64 %24, ptr %6, align 8, !tbaa !73
  %25 = load i64, ptr %5, align 8, !tbaa !73
  %26 = icmp ule i64 %25, 16
  br i1 %26, label %27, label %48

27:                                               ; preds = %20
  %28 = load i64, ptr %6, align 8, !tbaa !73
  %29 = lshr i64 %28, 4
  %30 = load i64, ptr %6, align 8, !tbaa !73
  %31 = xor i64 %30, %29
  store i64 %31, ptr %6, align 8, !tbaa !73
  %32 = load i64, ptr %5, align 8, !tbaa !73
  %33 = icmp ule i64 %32, 4
  br i1 %33, label %34, label %47

34:                                               ; preds = %27
  %35 = load i64, ptr %6, align 8, !tbaa !73
  %36 = lshr i64 %35, 2
  %37 = load i64, ptr %6, align 8, !tbaa !73
  %38 = xor i64 %37, %36
  store i64 %38, ptr %6, align 8, !tbaa !73
  %39 = load i64, ptr %5, align 8, !tbaa !73
  %40 = icmp ule i64 %39, 2
  br i1 %40, label %41, label %46

41:                                               ; preds = %34
  %42 = load i64, ptr %6, align 8, !tbaa !73
  %43 = lshr i64 %42, 1
  %44 = load i64, ptr %6, align 8, !tbaa !73
  %45 = xor i64 %44, %43
  store i64 %45, ptr %6, align 8, !tbaa !73
  br label %46

46:                                               ; preds = %41, %34
  br label %47

47:                                               ; preds = %46, %27
  br label %48

48:                                               ; preds = %47, %20
  br label %49

49:                                               ; preds = %48, %13
  br label %50

50:                                               ; preds = %49, %2
  %51 = load i64, ptr %6, align 8, !tbaa !73
  %52 = load i64, ptr %5, align 8, !tbaa !73
  %53 = urem i64 %51, %52
  %54 = trunc i64 %53 to i32
  call void @llvm.lifetime.end.p0(i64 8, ptr %6) #15
  call void @llvm.lifetime.end.p0(i64 8, ptr %5) #15
  ret i32 %54
}