; Function Attrs: mustprogress nofree norecurse nosync nounwind willreturn memory(argmem: readwrite) uwtable
define dso_local noundef i32 @_ZN35btSequentialImpulseConstraintSolver10btRandInt2Ei(ptr noundef nonnull align 8 captures(none) dereferenceable(408) %0, i32 noundef %1) local_unnamed_addr #6 align 2 {
  %3 = getelementptr inbounds nuw i8, ptr %0, i64 368
  %4 = load i64, ptr %3, align 8, !tbaa !51
  %5 = mul i64 %4, 1664525
  %6 = add i64 %5, 1013904223
  %7 = and i64 %6, 4294967295
  store i64 %7, ptr %3, align 8, !tbaa !51
  %8 = icmp ult i32 %1, 65537
  br i1 %8, label %9, label %28

9:                                                ; preds = %2
  %10 = lshr i64 %7, 16
  %11 = xor i64 %10, %7
  %12 = icmp samesign ult i32 %1, 257
  br i1 %12, label %13, label %28

13:                                               ; preds = %9
  %14 = lshr i64 %11, 8
  %15 = xor i64 %14, %11
  %16 = icmp samesign ult i32 %1, 17
  br i1 %16, label %17, label %28

17:                                               ; preds = %13
  %18 = lshr i64 %15, 4
  %19 = xor i64 %18, %15
  %20 = icmp samesign ult i32 %1, 5
  br i1 %20, label %21, label %28

21:                                               ; preds = %17
  %22 = lshr i64 %19, 2
  %23 = xor i64 %22, %19
  %24 = icmp samesign ult i32 %1, 3
  br i1 %24, label %25, label %28

25:                                               ; preds = %21
  %26 = lshr i64 %23, 1
  %27 = xor i64 %26, %23
  br label %28

28:                                               ; preds = %9, %17, %25, %21, %13, %2
  %.0 = phi i64 [ %27, %25 ], [ %23, %21 ], [ %19, %17 ], [ %15, %13 ], [ %11, %9 ], [ %7, %2 ]
  %29 = sext i32 %1 to i64
  %30 = urem i64 %.0, %29
  %31 = trunc nuw i64 %30 to i32
  ret i32 %31
}